; Function Attrs: mustprogress uwtable
define noundef zeroext i1 @_ZN5faiss17InterruptCallback14is_interruptedEv() local_unnamed_addr #0 align 2 personality ptr @__gxx_personality_v0 {
  %1 = load ptr, ptr @_ZN5faiss17InterruptCallback8instanceE, align 8
  %.not = icmp eq ptr %1, null
  br i1 %.not, label %14, label %2

2:                                                ; preds = %0
  %3 = tail call noundef i32 @pthread_mutex_lock(ptr noundef nonnull @_ZN5faiss17InterruptCallback4lockE) #14
  %.not.i.i = icmp eq i32 %3, 0
  br i1 %.not.i.i, label %_ZNSt10lock_guardISt5mutexEC2ERS0_.exit, label %4

4:                                                ; preds = %2
  tail call void @_ZSt20__throw_system_errori(i32 noundef %3) #21
  unreachable

_ZNSt10lock_guardISt5mutexEC2ERS0_.exit:          ; preds = %2
  %5 = load ptr, ptr @_ZN5faiss17InterruptCallback8instanceE, align 8
  %6 = load ptr, ptr %5, align 8
  %7 = load ptr, ptr %6, align 8
  %8 = invoke noundef zeroext i1 %7(ptr noundef nonnull align 8 dereferenceable(8) %5)
          to label %9 unwind label %11

9:                                                ; preds = %_ZNSt10lock_guardISt5mutexEC2ERS0_.exit
  %10 = tail call noundef i32 @pthread_mutex_unlock(ptr noundef nonnull @_ZN5faiss17InterruptCallback4lockE) #14
  br label %14

11:                                               ; preds = %_ZNSt10lock_guardISt5mutexEC2ERS0_.exit
  %12 = landingpad { ptr, i32 }
          cleanup
  %13 = tail call noundef i32 @pthread_mutex_unlock(ptr noundef nonnull @_ZN5faiss17InterruptCallback4lockE) #14
  resume { ptr, i32 } %12

14:                                               ; preds = %0, %9
  %.0 = phi i1 [ %8, %9 ], [ false, %0 ]
  ret i1 %.0
}